; Function Attrs: mustprogress nofree norecurse nosync nounwind willreturn memory(argmem: read) uwtable
define zeroext range(i8 0, 2) i8 @l_Lean_DataValue_sameCtor(ptr noundef %0, ptr noundef %1) local_unnamed_addr #3 {
  %3 = ptrtoint ptr %0 to i64
  %4 = and i64 %3, 1
  %.not.i = icmp eq i64 %4, 0
  br i1 %.not.i, label %8, label %5

5:                                                ; preds = %2
  %6 = lshr i64 %3, 1
  %7 = trunc i64 %6 to i32
  br label %lean_obj_tag.exit

8:                                                ; preds = %2
  %9 = getelementptr i8, ptr %0, i64 4
  %.val.i = load i32, ptr %9, align 4
  %10 = lshr i32 %.val.i, 24
  br label %lean_obj_tag.exit

lean_obj_tag.exit:                                ; preds = %5, %8
  %.0.i = phi i32 [ %7, %5 ], [ %10, %8 ]
  %11 = ptrtoint ptr %1 to i64
  %12 = and i64 %11, 1
  %.not.i44 = icmp eq i64 %12, 0
  switch i32 %.0.i, label %53 [
    i32 0, label %13
    i32 1, label %21
    i32 2, label %29
    i32 3, label %37
    i32 4, label %45
  ]

13:                                               ; preds = %lean_obj_tag.exit
  br i1 %.not.i44, label %17, label %14

14:                                               ; preds = %13
  %15 = lshr i64 %11, 1
  %16 = trunc i64 %15 to i32
  br label %lean_obj_tag.exit27

17:                                               ; preds = %13
  %18 = getelementptr i8, ptr %1, i64 4
  %.val.i26 = load i32, ptr %18, align 4
  %19 = lshr i32 %.val.i26, 24
  br label %lean_obj_tag.exit27

lean_obj_tag.exit27:                              ; preds = %14, %17
  %.0.i25 = phi i32 [ %16, %14 ], [ %19, %17 ]
  %20 = icmp eq i32 %.0.i25, 0
  br label %61

21:                                               ; preds = %lean_obj_tag.exit
  br i1 %.not.i44, label %25, label %22

22:                                               ; preds = %21
  %23 = lshr i64 %11, 1
  %24 = trunc i64 %23 to i32
  br label %lean_obj_tag.exit31

25:                                               ; preds = %21
  %26 = getelementptr i8, ptr %1, i64 4
  %.val.i30 = load i32, ptr %26, align 4
  %27 = lshr i32 %.val.i30, 24
  br label %lean_obj_tag.exit31

lean_obj_tag.exit31:                              ; preds = %22, %25
  %.0.i29 = phi i32 [ %24, %22 ], [ %27, %25 ]
  %28 = icmp eq i32 %.0.i29, 1
  br label %61

29:                                               ; preds = %lean_obj_tag.exit
  br i1 %.not.i44, label %33, label %30

30:                                               ; preds = %29
  %31 = lshr i64 %11, 1
  %32 = trunc i64 %31 to i32
  br label %lean_obj_tag.exit35

33:                                               ; preds = %29
  %34 = getelementptr i8, ptr %1, i64 4
  %.val.i34 = load i32, ptr %34, align 4
  %35 = lshr i32 %.val.i34, 24
  br label %lean_obj_tag.exit35

lean_obj_tag.exit35:                              ; preds = %30, %33
  %.0.i33 = phi i32 [ %32, %30 ], [ %35, %33 ]
  %36 = icmp eq i32 %.0.i33, 2
  br label %61

37:                                               ; preds = %lean_obj_tag.exit
  br i1 %.not.i44, label %41, label %38

38:                                               ; preds = %37
  %39 = lshr i64 %11, 1
  %40 = trunc i64 %39 to i32
  br label %lean_obj_tag.exit39

41:                                               ; preds = %37
  %42 = getelementptr i8, ptr %1, i64 4
  %.val.i38 = load i32, ptr %42, align 4
  %43 = lshr i32 %.val.i38, 24
  br label %lean_obj_tag.exit39

lean_obj_tag.exit39:                              ; preds = %38, %41
  %.0.i37 = phi i32 [ %40, %38 ], [ %43, %41 ]
  %44 = icmp eq i32 %.0.i37, 3
  br label %61

45:                                               ; preds = %lean_obj_tag.exit
  br i1 %.not.i44, label %49, label %46

46:                                               ; preds = %45
  %47 = lshr i64 %11, 1
  %48 = trunc i64 %47 to i32
  br label %lean_obj_tag.exit43

49:                                               ; preds = %45
  %50 = getelementptr i8, ptr %1, i64 4
  %.val.i42 = load i32, ptr %50, align 4
  %51 = lshr i32 %.val.i42, 24
  br label %lean_obj_tag.exit43

lean_obj_tag.exit43:                              ; preds = %46, %49
  %.0.i41 = phi i32 [ %48, %46 ], [ %51, %49 ]
  %52 = icmp eq i32 %.0.i41, 4
  br label %61

53:                                               ; preds = %lean_obj_tag.exit
  br i1 %.not.i44, label %57, label %54

54:                                               ; preds = %53
  %55 = lshr i64 %11, 1
  %56 = trunc i64 %55 to i32
  br label %lean_obj_tag.exit47

57:                                               ; preds = %53
  %58 = getelementptr i8, ptr %1, i64 4
  %.val.i46 = load i32, ptr %58, align 4
  %59 = lshr i32 %.val.i46, 24
  br label %lean_obj_tag.exit47

lean_obj_tag.exit47:                              ; preds = %54, %57
  %.0.i45 = phi i32 [ %56, %54 ], [ %59, %57 ]
  %60 = icmp eq i32 %.0.i45, 5
  br label %61

61:                                               ; preds = %lean_obj_tag.exit47, %lean_obj_tag.exit43, %lean_obj_tag.exit39, %lean_obj_tag.exit35, %lean_obj_tag.exit31, %lean_obj_tag.exit27
  %.0.in = phi i1 [ %20, %lean_obj_tag.exit27 ], [ %28, %lean_obj_tag.exit31 ], [ %36, %lean_obj_tag.exit35 ], [ %44, %lean_obj_tag.exit39 ], [ %52, %lean_obj_tag.exit43 ], [ %60, %lean_obj_tag.exit47 ]
  %.0 = zext i1 %.0.in to i8
  ret i8 %.0
}